; Function Attrs: mustprogress uwtable
define hidden void @_Z36pj_clear_vgridshift_knowngrids_cachev() local_unnamed_addr #3 personality ptr @__gxx_personality_v0 {
  %1 = tail call noundef i32 @pthread_mutex_lock(ptr noundef nonnull @_ZL16gMutexVGridShift) #16
  %.not.i.i = icmp eq i32 %1, 0
  br i1 %.not.i.i, label %_ZNSt10lock_guardISt5mutexEC2ERS0_.exit, label %2

2:                                                ; preds = %0
  tail call void @_ZSt20__throw_system_errori(i32 noundef %1) #19
  unreachable

_ZNSt10lock_guardISt5mutexEC2ERS0_.exit:          ; preds = %0
  %3 = load ptr, ptr getelementptr inbounds (%"class.std::set", ptr @_ZL21gKnownGridsVGridShiftB5cxx11, i64 0, i32 0, i32 0, i32 1, i32 0, i32 1), align 8
  invoke void @_ZNSt8_Rb_treeINSt7__cxx1112basic_stringIcSt11char_traitsIcESaIcEEES5_St9_IdentityIS5_ESt4lessIS5_ESaIS5_EE8_M_eraseEPSt13_Rb_tree_nodeIS5_E(ptr noundef nonnull align 8 dereferenceable(48) @_ZL21gKnownGridsVGridShiftB5cxx11, ptr noundef %3)
          to label %_ZNSt3setINSt7__cxx1112basic_stringIcSt11char_traitsIcESaIcEEESt4lessIS5_ESaIS5_EE5clearEv.exit unwind label %4

4:                                                ; preds = %_ZNSt10lock_guardISt5mutexEC2ERS0_.exit
  %5 = landingpad { ptr, i32 }
          catch ptr null
  %6 = extractvalue { ptr, i32 } %5, 0
  tail call void @__clang_call_terminate(ptr %6) #14
  unreachable

_ZNSt3setINSt7__cxx1112basic_stringIcSt11char_traitsIcESaIcEEESt4lessIS5_ESaIS5_EE5clearEv.exit: ; preds = %_ZNSt10lock_guardISt5mutexEC2ERS0_.exit
  store ptr null, ptr getelementptr inbounds (%"class.std::set", ptr @_ZL21gKnownGridsVGridShiftB5cxx11, i64 0, i32 0, i32 0, i32 1, i32 0, i32 1), align 8
  store ptr getelementptr inbounds (%"class.std::set", ptr @_ZL21gKnownGridsVGridShiftB5cxx11, i64 0, i32 0, i32 0, i32 1, i32 0, i32 0), ptr getelementptr inbounds (%"class.std::set", ptr @_ZL21gKnownGridsVGridShiftB5cxx11, i64 0, i32 0, i32 0, i32 1, i32 0, i32 2), align 8
  store ptr getelementptr inbounds (%"class.std::set", ptr @_ZL21gKnownGridsVGridShiftB5cxx11, i64 0, i32 0, i32 0, i32 1, i32 0, i32 0), ptr getelementptr inbounds (%"class.std::set", ptr @_ZL21gKnownGridsVGridShiftB5cxx11, i64 0, i32 0, i32 0, i32 1, i32 0, i32 3), align 8
  store i64 0, ptr getelementptr inbounds (%"class.std::set", ptr @_ZL21gKnownGridsVGridShiftB5cxx11, i64 0, i32 0, i32 0, i32 1, i32 1), align 8
  %7 = tail call noundef i32 @pthread_mutex_unlock(ptr noundef nonnull @_ZL16gMutexVGridShift) #16
  ret void
}